Certificate:
    Data:
        Version: 3 (0x2)
        Serial Number:
            6f:dc:ea:62:f3:32:f9:8c:1b:9a:1a:90
        Signature Algorithm: ecdsa-with-SHA512
        Issuer: C=CN, O=Pikachu Trust Network CA, OU=Pikachu Certification Authority, CN=Pikachu Root CA ECC/name=\xE7\x9A\xAE\xE5\x8D\xA1\xE4\xB8\x98CA\xE7\xB3\xBB\xE7\xBB\x9F\xE8\xAF\x81\xE4\xB9\xA6ECC/name=Pikachu Root CA ECC/description=\xE7\x9A\xAE\xE5\x8D\xA1\xE4\xB8\x98\xE6\x95\xB0\xE5\xAD\x97\xE8\xAF\x81\xE4\xB9\xA6\xE4\xBF\xA1\xE4\xBB\xBB\xE7\xB3\xBB\xE7\xBB\x9F\xE6\xA0\xB9\xE8\xAF\x81\xE4\xB9\xA6
        Validity
            Not Before: Jan  1 00:00:00 2000 GMT
            Not After : Dec 31 23:59:59 2999 GMT
        Subject: C=CN, O=Pikachu Trust Network CA, OU=Pikachu Certification Authority, CN=Pikachu Root CA ECC/name=\xE7\x9A\xAE\xE5\x8D\xA1\xE4\xB8\x98CA\xE7\xB3\xBB\xE7\xBB\x9F\xE8\xAF\x81\xE4\xB9\xA6ECC/name=Pikachu Root CA ECC/description=\xE7\x9A\xAE\xE5\x8D\xA1\xE4\xB8\x98\xE6\x95\xB0\xE5\xAD\x97\xE8\xAF\x81\xE4\xB9\xA6\xE4\xBF\xA1\xE4\xBB\xBB\xE7\xB3\xBB\xE7\xBB\x9F\xE6\xA0\xB9\xE8\xAF\x81\xE4\xB9\xA6
        Subject Public Key Info:
            Public Key Algorithm: id-ecPublicKey
                Public-Key: (521 bit)
                pub:
                    04:00:c7:3c:4b:92:96:7e:f3:9f:5f:e5:c4:51:6f:
                    d5:a9:96:8e:04:e4:21:ed:7f:b6:55:6d:ed:0a:eb:
                    7f:a8:5e:1a:00:ff:7c:99:5c:55:c9:45:45:f5:bc:
                    37:ff:c6:8e:17:35:51:12:56:f9:0f:84:8f:6a:d2:
                    8d:df:98:ce:65:9a:b4:01:4c:51:04:1f:f6:7b:08:
                    c1:85:f8:68:df:d7:d8:26:8f:64:7e:51:e9:20:53:
                    cf:5c:c3:d8:52:74:e8:21:af:7b:61:3b:85:15:79:
                    ec:c7:87:b6:51:c4:83:21:19:af:99:8e:5c:ec:ff:
                    36:91:79:11:38:3e:d7:c4:b8:f6:0c:a1:06
                ASN1 OID: secp521r1
                NIST CURVE: P-521
        X509v3 extensions:
            X509v3 Subject Alternative Name: 
                DNS:Pikachu Root CA ECC
            X509v3 Issuer Alternative Name: 
                DNS:Pikachu Root CA ECC
            X509v3 Authority Key Identifier: 
                DirName:/C=CN/O=Pikachu Trust Network CA/OU=Pikachu Certification Authority/CN=Pikachu Root CA ECC/name=\xE7\x9A\xAE\xE5\x8D\xA1\xE4\xB8\x98CA\xE7\xB3\xBB\xE7\xBB\x9F\xE8\xAF\x81\xE4\xB9\xA6ECC/name=Pikachu Root CA ECC
                serial:6F:DC:EA:62:F3:32:F9:8C:1B:9A:1A:90
            X509v3 Basic Constraints: critical
                CA:TRUE
            X509v3 Key Usage: 
                Certificate Sign, CRL Sign
            Netscape Comment: 
                Pikachu Root CA ECC
            Netscape Cert Type: 
                SSL CA, S/MIME CA, Object Signing CA
            Netscape CA Revocation Url: 
                https://cert.pika.net.cn/CA-ECC.crl
            Netscape Base Url: 
                https://cert.pika.net.cn
            Netscape Revocation Url: 
                https://cert.pika.net.cn/CA-ECC.crl
            Netscape Renewal Url: 
                https://cert.pika.net.cn/CA-ECC.cer
            Netscape CA Policy Url: 
                https://cert.pika.net.cn
            Netscape SSL Server Name: 
                cert.pika.net.cn
            X509v3 Extended Key Usage: critical
                X509v3 Any Policy, Any Extended Key Usage, 2.16.156.112554.3, 2.23.140.1.3, Netscape Server Gated Crypto, TLS Web Server Authentication, TLS Web Client Authentication, Code Signing, E-mail Protection, IPSec End System, IPSec Tunnel, IPSec User, Time Stamping, OCSP Signing, ipsec Internet Key Exchange, 1.3.6.1.5.5.8.2.2, 1.3.6.1.4.1.311, Microsoft Individual Code Signing, Microsoft Commercial Code Signing, Microsoft Trust List Signing, 1.3.6.1.4.1.311.10.3.2, Microsoft Server Gated Crypto, Microsoft Encrypted File System, 1.3.6.1.4.1.311.10.3.4.1, 1.3.6.1.4.1.311.10.3.5, 1.3.6.1.4.1.311.10.3.7, 1.3.6.1.4.1.311.10.3.6, 1.3.6.1.4.1.311.10.3.8, 1.3.6.1.4.1.311.10.3.9, 1.3.6.1.4.1.311.10.3.10, 1.3.6.1.4.1.311.10.3.11, 1.3.6.1.4.1.311.10.3.12, 1.3.6.1.4.1.311.10.3.13, 1.3.6.1.4.1.311.10.5.1, 1.3.6.1.4.1.311.10.6.1, 1.3.6.1.4.1.311.10.6.2, 1.3.6.1.4.1.311.20.2, 1.3.6.1.4.1.311.20.2.1, Microsoft Smartcard Login, Microsoft User Principal Name, 1.3.6.1.4.1.311.21.1, 1.3.6.1.4.1.311.21.2, 1.3.6.1.4.1.311.21.3, 1.3.6.1.4.1.311.21.4, 1.3.6.1.4.1.311.21.5, 1.3.6.1.4.1.311.21.6, 1.3.6.1.4.1.311.21.19, 1.3.6.1.4.1.311.67.1.1, 1.3.6.1.4.1.311.21.10
            X509v3 CRL Distribution Points: 
                Full Name:
                  URI:https://cert.pika.net.cn/CA-ECC.crl
                Full Name:
                  URI:https://cert.52pika.cn/CA-ECC.crl
                Full Name:
                  URI:https://cert.52pika.com/CA-ECC.crl
                Full Name:
                  URI:https://cert.99pika.cn/CA-ECC.crl
                Full Name:
                  URI:https://cert.99pika.com/CA-ECC.crl
                Full Name:
                  URI:https://pikachuim.github.io/CA/CA-ECC.crl
                Full Name:
                  URI:https://pikachuim.gitee.io/ca/CA-ECC.crl
            X509v3 Certificate Policies: 
                Policy: 2.23.140.1.3
                Policy: 2.16.156.112554.3
                Policy: X509v3 Any Policy
                Policy: Any Extended Key Usage
            Authority Information Access: 
                OCSP - URI:https://cert.pika.net.cn/CA-ECC
                OCSP - URI:https://cert.52pika.cn/CA-ECC
                OCSP - URI:https://cert.52pika.com/CA-ECC
                OCSP - URI:https://cert.99pika.cn/CA-ECC
                OCSP - URI:https://cert.99pika.com/CA-ECC
                OCSP - URI:https://pikachuim.github.io/CA/CA-ECC
                OCSP - URI:https://pikachuim.gitee.io/ca/CA-ECC
                CA Issuers - URI:https://cert.pika.net.cn/CA-ECC.cer
                CA Issuers - URI:https://cert.52pika.cn/CA-ECC.cer
                CA Issuers - URI:https://cert.52pika.com/CA-ECC.cer
                CA Issuers - URI:https://cert.99pika.cn/CA-ECC.cer
                CA Issuers - URI:https://cert.99pika.com/CA-ECC.cer
                CA Issuers - URI:https://pikachuim.github.io/CA/CA-ECC.cer
                CA Issuers - URI:https://pikachuim.gitee.io/ca/CA-ECC.cer
            X509v3 Subject Key Identifier: 
                6E:87:51:84:A2:6A:6D:6B:48:62:70:8C:E0:8F:19:69:CE:6F:E3:B0
    Signature Algorithm: ecdsa-with-SHA512
    Signature Value:
        30:81:87:02:42:01:1d:00:b9:5e:79:70:90:02:e8:53:57:3d:
        8e:24:e5:69:8d:53:cc:66:37:0c:89:9f:4f:85:6c:da:c7:a2:
        41:17:40:bb:7e:33:66:9d:67:bf:2e:46:1d:18:73:42:7c:d6:
        d6:27:64:6b:d5:9b:29:b0:c9:97:74:31:0d:50:e6:d3:f8:02:
        41:03:c3:99:2e:ee:bf:28:2e:44:87:a8:56:db:ed:5c:02:cb:
        6e:93:a0:f4:ce:b9:00:8c:9d:a0:f8:f6:b1:34:e2:03:e0:06:
        8e:e3:19:cd:e9:11:1b:e0:91:aa:83:5d:ba:8c:22:2c:a6:c8:
        28:2b:54:24:d9:ef:03:2b:43:da:cc:15
-----BEGIN CERTIFICATE-----
MIIMlDCCC/agAwIBAgIMb9zqYvMy+YwbmhqQMAoGCCqGSM49BAMEMIHwMQswCQYD
VQQGEwJDTjEhMB8GA1UECgwYUGlrYWNodSBUcnVzdCBOZXR3b3JrIENBMSgwJgYD
VQQLDB9QaWthY2h1IENlcnRpZmljYXRpb24gQXV0aG9yaXR5MRwwGgYDVQQDDBNQ
aWthY2h1IFJvb3QgQ0EgRUNDMSMwIQYDVQQpDBrnmq7ljaHkuJhDQeezu+e7n+iv
geS5pkVDQzEcMBoGA1UEKQwTUGlrYWNodSBSb290IENBIEVDQzEzMDEGA1UEDQwq
55qu5Y2h5LiY5pWw5a2X6K+B5Lmm5L+h5Lu757O757uf5qC56K+B5LmmMCAXDTAw
MDEwMTAwMDAwMFoYDzI5OTkxMjMxMjM1OTU5WjCB8DELMAkGA1UEBhMCQ04xITAf
BgNVBAoMGFBpa2FjaHUgVHJ1c3QgTmV0d29yayBDQTEoMCYGA1UECwwfUGlrYWNo
dSBDZXJ0aWZpY2F0aW9uIEF1dGhvcml0eTEcMBoGA1UEAwwTUGlrYWNodSBSb290
IENBIEVDQzEjMCEGA1UEKQwa55qu5Y2h5LiYQ0Hns7vnu5/or4HkuaZFQ0MxHDAa
BgNVBCkME1Bpa2FjaHUgUm9vdCBDQSBFQ0MxMzAxBgNVBA0MKuearuWNoeS4mOaV
sOWtl+ivgeS5puS/oeS7u+ezu+e7n+agueivgeS5pjCBmzAQBgcqhkjOPQIBBgUr
gQQAIwOBhgAEAMc8S5KWfvOfX+XEUW/VqZaOBOQh7X+2VW3tCut/qF4aAP98mVxV
yUVF9bw3/8aOFzVRElb5D4SPatKN35jOZZq0AUxRBB/2ewjBhfho39fYJo9kflHp
IFPPXMPYUnToIa97YTuFFXnsx4e2UcSDIRmvmY5c7P82kXkROD7XxLj2DKEGo4IJ
LTCCCSkwHgYDVR0RBBcwFYITUGlrYWNodSBSb290IENBIEVDQzAeBgNVHRIEFzAV
ghNQaWthY2h1IFJvb3QgQ0EgRUNDMIIBFAYDVR0jBIIBCzCCAQehgfakgfMwgfAx
CzAJBgNVBAYTAkNOMSEwHwYDVQQKDBhQaWthY2h1IFRydXN0IE5ldHdvcmsgQ0Ex
KDAmBgNVBAsMH1Bpa2FjaHUgQ2VydGlmaWNhdGlvbiBBdXRob3JpdHkxHDAaBgNV
BAMME1Bpa2FjaHUgUm9vdCBDQSBFQ0MxIzAhBgNVBCkMGuearuWNoeS4mENB57O7
57uf6K+B5LmmRUNDMRwwGgYDVQQpDBNQaWthY2h1IFJvb3QgQ0EgRUNDMTMwMQYD
VQQNDCrnmq7ljaHkuJjmlbDlrZfor4Hkuabkv6Hku7vns7vnu5/moLnor4HkuaaC
DG/c6mLzMvmMG5oakDAPBgNVHRMBAf8EBTADAQH/MAsGA1UdDwQEAwIBBjAiBglg
hkgBhvhCAQ0EFRYTUGlrYWNodSBSb290IENBIEVDQzARBglghkgBhvhCAQEEBAMC
AAcwMgYJYIZIAYb4QgEEBCUWI2h0dHBzOi8vY2VydC5waWthLm5ldC5jbi9DQS1F
Q0MuY3JsMCcGCWCGSAGG+EIBAgQaFhhodHRwczovL2NlcnQucGlrYS5uZXQuY24w
MgYJYIZIAYb4QgEDBCUWI2h0dHBzOi8vY2VydC5waWthLm5ldC5jbi9DQS1FQ0Mu
Y3JsMDIGCWCGSAGG+EIBBwQlFiNodHRwczovL2NlcnQucGlrYS5uZXQuY24vQ0Et
RUNDLmNlcjAnBglghkgBhvhCAQgEGhYYaHR0cHM6Ly9jZXJ0LnBpa2EubmV0LmNu
MB8GCWCGSAGG+EIBDAQSFhBjZXJ0LnBpa2EubmV0LmNuMIICJgYDVR0lAQH/BIIC
GjCCAhYGBFUdIAAGBFUdJQAGB2CBHIbvKgMGBWeBDAEDBglghkgBhvhCBAEGCCsG
AQUFBwMBBggrBgEFBQcDAgYIKwYBBQUHAwMGCCsGAQUFBwMEBggrBgEFBQcDBQYI
KwYBBQUHAwYGCCsGAQUFBwMHBggrBgEFBQcDCAYIKwYBBQUHAwkGCCsGAQUFBwMR
BggrBgEFBQgCAgYHKwYBBAGCNwYKKwYBBAGCNwIBFQYKKwYBBAGCNwIBFgYKKwYB
BAGCNwoDAQYKKwYBBAGCNwoDAgYKKwYBBAGCNwoDAwYKKwYBBAGCNwoDBAYLKwYB
BAGCNwoDBAEGCisGAQQBgjcKAwUGCisGAQQBgjcKAwcGCisGAQQBgjcKAwYGCisG
AQQBgjcKAwgGCisGAQQBgjcKAwkGCisGAQQBgjcKAwoGCisGAQQBgjcKAwsGCisG
AQQBgjcKAwwGCisGAQQBgjcKAw0GCisGAQQBgjcKBQEGCisGAQQBgjcKBgEGCisG
AQQBgjcKBgIGCSsGAQQBgjcUAgYKKwYBBAGCNxQCAQYKKwYBBAGCNxQCAgYKKwYB
BAGCNxQCAwYJKwYBBAGCNxUBBgkrBgEEAYI3FQIGCSsGAQQBgjcVAwYJKwYBBAGC
NxUEBgkrBgEEAYI3FQUGCSsGAQQBgjcVBgYJKwYBBAGCNxUTBgorBgEEAYI3QwEB
BgkrBgEEAYI3FQowggE/BgNVHR8EggE2MIIBMjApoCegJYYjaHR0cHM6Ly9jZXJ0
LnBpa2EubmV0LmNuL0NBLUVDQy5jcmwwJ6AloCOGIWh0dHBzOi8vY2VydC41MnBp
a2EuY24vQ0EtRUNDLmNybDAooCagJIYiaHR0cHM6Ly9jZXJ0LjUycGlrYS5jb20v
Q0EtRUNDLmNybDAnoCWgI4YhaHR0cHM6Ly9jZXJ0Ljk5cGlrYS5jbi9DQS1FQ0Mu
Y3JsMCigJqAkhiJodHRwczovL2NlcnQuOTlwaWthLmNvbS9DQS1FQ0MuY3JsMC+g
LaArhilodHRwczovL3Bpa2FjaHVpbS5naXRodWIuaW8vQ0EvQ0EtRUNDLmNybDAu
oCygKoYoaHR0cHM6Ly9waWthY2h1aW0uZ2l0ZWUuaW8vY2EvQ0EtRUNDLmNybDAt
BgNVHSAEJjAkMAcGBWeBDAEDMAkGB2CBHIbvKgMwBgYEVR0gADAGBgRVHSUAMIIC
rgYIKwYBBQUHAQEEggKgMIICnDArBggrBgEFBQcwAYYfaHR0cHM6Ly9jZXJ0LnBp
a2EubmV0LmNuL0NBLUVDQzApBggrBgEFBQcwAYYdaHR0cHM6Ly9jZXJ0LjUycGlr
YS5jbi9DQS1FQ0MwKgYIKwYBBQUHMAGGHmh0dHBzOi8vY2VydC41MnBpa2EuY29t
L0NBLUVDQzApBggrBgEFBQcwAYYdaHR0cHM6Ly9jZXJ0Ljk5cGlrYS5jbi9DQS1F
Q0MwKgYIKwYBBQUHMAGGHmh0dHBzOi8vY2VydC45OXBpa2EuY29tL0NBLUVDQzAx
BggrBgEFBQcwAYYlaHR0cHM6Ly9waWthY2h1aW0uZ2l0aHViLmlvL0NBL0NBLUVD
QzAwBggrBgEFBQcwAYYkaHR0cHM6Ly9waWthY2h1aW0uZ2l0ZWUuaW8vY2EvQ0Et
RUNDMC8GCCsGAQUFBzAChiNodHRwczovL2NlcnQucGlrYS5uZXQuY24vQ0EtRUND
LmNlcjAtBggrBgEFBQcwAoYhaHR0cHM6Ly9jZXJ0LjUycGlrYS5jbi9DQS1FQ0Mu
Y2VyMC4GCCsGAQUFBzAChiJodHRwczovL2NlcnQuNTJwaWthLmNvbS9DQS1FQ0Mu
Y2VyMC0GCCsGAQUFBzAChiFodHRwczovL2NlcnQuOTlwaWthLmNuL0NBLUVDQy5j
ZXIwLgYIKwYBBQUHMAKGImh0dHBzOi8vY2VydC45OXBpa2EuY29tL0NBLUVDQy5j
ZXIwNQYIKwYBBQUHMAKGKWh0dHBzOi8vcGlrYWNodWltLmdpdGh1Yi5pby9DQS9D
QS1FQ0MuY2VyMDQGCCsGAQUFBzAChihodHRwczovL3Bpa2FjaHVpbS5naXRlZS5p
by9jYS9DQS1FQ0MuY2VyMB0GA1UdDgQWBBRuh1GEompta0hicIzgjxlpzm/jsDAK
BggqhkjOPQQDBAOBiwAwgYcCQgEdALleeXCQAuhTVz2OJOVpjVPMZjcMiZ9PhWza
x6JBF0C7fjNmnWe/LkYdGHNCfNbWJ2Rr1ZspsMmXdDENUObT+AJBA8OZLu6/KC5E
h6hW2+1cAstuk6D0zrkAjJ2g+PaxNOID4AaO4xnN6REb4JGqg126jCIspsgoK1Qk
2e8DK0PazBU=
-----END CERTIFICATE-----
