Certificate:
    Data:
        Version: 3 (0x2)
        Serial Number:
            ba:c3:1a:f1:b9:1c:8a:80:9c:44:d3:a9
        Signature Algorithm: SM2-with-SM3
        Issuer: C=CN, ST=Sichuan, O=Pikachu Group, CN=Pikachu Root CA SM2
        Validity
            Not Before: Jan  1 00:00:00 2000 GMT
            Not After : Dec 31 23:59:59 2999 GMT
        Subject: C=CN, ST=Sichuan, O=Pikachu Group, CN=Pikachu Root CA SM2
        Subject Public Key Info:
            Public Key Algorithm: sm2
                Public-Key: (256 bit)
                pub:
                    04:18:d1:23:40:ff:44:d6:ee:8f:10:1a:d3:0d:c4:
                    ff:2d:5f:9e:fd:c0:7f:c9:f4:71:a3:9e:b9:b5:e8:
                    a8:aa:43:ec:67:cd:f5:e7:56:1b:f1:64:18:ed:dc:
                    6e:cb:d8:39:69:f9:69:8e:29:33:31:b7:e6:8b:2d:
                    97:b2:8f:af:6d
                ASN1 OID: SM2
        X509v3 extensions:
            X509v3 Subject Alternative Name: 
                DNS:52pika.cn, DNS:52pika.com, DNS:52pika.cf, DNS:*.52pika.cn, DNS:*.52pika.com, DNS:*.52pika.cf, DNS:pika.net.cn, DNS:*.pika.net.cn, DNS:*.99pika.cf, DNS:99pika.cf, DNS:*.99pika.cn, DNS:99pika.cn, DNS:99pika.com, DNS:*.99pika.com, DNS:皮卡丘根证书, DNS:Pikachu Root Certificate, DNS:Pikachuim, DNS:皮卡丘数字证书系统
            X509v3 Issuer Alternative Name: 
                DNS:52pika.cn, DNS:52pika.com, DNS:52pika.cf, DNS:*.52pika.cn, DNS:*.52pika.com, DNS:*.52pika.cf, DNS:pika.net.cn, DNS:*.pika.net.cn, DNS:*.99pika.cf, DNS:99pika.cf, DNS:*.99pika.cn, DNS:99pika.cn, DNS:99pika.com, DNS:*.99pika.com, DNS:皮卡丘根证书, DNS:Pikachu Root Certificate, DNS:Pikachuim, DNS:皮卡丘数字证书系统
            X509v3 Subject Key Identifier: 
                EE:00:6C:B1:EC:9F:3A:04:81:0C:90:E0:60:02:0C:B3:8B:32:25:40
            X509v3 Authority Key Identifier: 
                EE:00:6C:B1:EC:9F:3A:04:81:0C:90:E0:60:02:0C:B3:8B:32:25:40
            X509v3 Basic Constraints: critical
                CA:TRUE
            X509v3 Key Usage: 
                Digital Signature, Non Repudiation, Key Encipherment, Data Encipherment, Key Agreement, Certificate Sign, CRL Sign, Encipher Only, Decipher Only
            Netscape Comment: 
                Pikachu Root CA SM2
            Netscape Cert Type: 
                SSL Client, SSL Server, S/MIME, Object Signing
            Netscape CA Revocation Url: 
                https://cert.52pika.cn/CRL/CA-SM2.cer
            Netscape Base Url: 
                https://cert.52pika.cn
            Netscape Revocation Url: 
                https://cert.52pika.cn/CRL/CA-SM2.cer
            Netscape Renewal Url: 
                https://cert.52pika.cn/CA-SM2.cer
            Netscape CA Policy Url: 
                https://cert.52pika.cn
            Netscape SSL Server Name: 
                cert.52pika.cn
            X509v3 Extended Key Usage: critical
                Any Extended Key Usage, TLS Web Server Authentication, TLS Web Client Authentication, Code Signing, E-mail Protection, IPSec End System, IPSec Tunnel, IPSec User, Time Stamping, OCSP Signing, ipsec Internet Key Exchange, 1.3.6.1.5.5.8.2.2, Microsoft Individual Code Signing, Microsoft Commercial Code Signing, Microsoft Trust List Signing, Microsoft Encrypted File System, 1.3.6.1.4.1.311.10.3.4.1, Microsoft Smartcard Login, Netscape Server Gated Crypto, 1.3.6.1.4.1.311.10.3.10, 1.3.6.1.4.1.311.10.3.11, 1.3.6.1.4.1.311.10.6.2, 1.3.6.1.4.1.311.10.3.13, 1.3.6.1.4.1.311.10.3.2, 1.3.6.1.4.1.311.10.3.9, 1.3.6.1.4.1.311.10.5.1, 1.3.6.1.4.1.311.10.6.1, 1.3.6.1.4.1.311.10.3.12, 1.3.6.1.4.1.311.20.2.1, 1.3.6.1.4.1.311.21.5, 1.3.6.1.4.1.311.10.3.5, 1.3.6.1.4.1.311.21.6, 1.3.6.1.4.1.311.10.3.7, 1.3.6.1.4.1.311.21.19, 1.3.6.1.4.1.311.10.3.8, 1.3.6.1.4.1.311.10.3.6, X509v3 Any Policy, Microsoft Server Gated Crypto
    Signature Algorithm: SM2-with-SM3
    Signature Value:
        30:45:02:20:75:4c:70:47:fc:f4:33:4a:b1:92:16:0c:05:e6:
        a6:fb:8b:79:d6:b5:e8:a3:5b:58:e6:8e:89:54:5b:f7:55:f9:
        02:21:00:f0:11:1e:da:81:26:4e:36:0c:c7:dd:30:de:34:94:
        6f:06:f0:65:ed:f9:21:98:88:73:03:21:5e:11:8e:ab:fd
-----BEGIN CERTIFICATE-----
MIIHNDCCBtqgAwIBAgINALrDGvG5HIqAnETTqTAKBggqgRzPVQGDdTBVMQswCQYD
VQQGEwJDTjEQMA4GA1UECAwHU2ljaHVhbjEWMBQGA1UECgwNUGlrYWNodSBHcm91
cDEcMBoGA1UEAwwTUGlrYWNodSBSb290IENBIFNNMjAgFw0wMDAxMDEwMDAwMDBa
GA8yOTk5MTIzMTIzNTk1OVowVTELMAkGA1UEBhMCQ04xEDAOBgNVBAgMB1NpY2h1
YW4xFjAUBgNVBAoMDVBpa2FjaHUgR3JvdXAxHDAaBgNVBAMME1Bpa2FjaHUgUm9v
dCBDQSBTTTIwWjAUBggqgRzPVQGCLQYIKoEcz1UBgi0DQgAEGNEjQP9E1u6PEBrT
DcT/LV+e/cB/yfRxo565teioqkPsZ83151Yb8WQY7dxuy9g5aflpjikzMbfmiy2X
so+vbaOCBYowggWGMIIBEwYDVR0RBIIBCjCCAQaCCTUycGlrYS5jboIKNTJwaWth
LmNvbYIJNTJwaWthLmNmggsqLjUycGlrYS5jboIMKi41MnBpa2EuY29tggsqLjUy
cGlrYS5jZoILcGlrYS5uZXQuY26CDSoucGlrYS5uZXQuY26CCyouOTlwaWthLmNm
ggk5OXBpa2EuY2aCCyouOTlwaWthLmNuggk5OXBpa2EuY26CCjk5cGlrYS5jb22C
DCouOTlwaWthLmNvbYIS55qu5Y2h5LiY5qC56K+B5LmmghhQaWthY2h1IFJvb3Qg
Q2VydGlmaWNhdGWCCVBpa2FjaHVpbYIb55qu5Y2h5LiY5pWw5a2X6K+B5Lmm57O7
57ufMIIBEwYDVR0SBIIBCjCCAQaCCTUycGlrYS5jboIKNTJwaWthLmNvbYIJNTJw
aWthLmNmggsqLjUycGlrYS5jboIMKi41MnBpa2EuY29tggsqLjUycGlrYS5jZoIL
cGlrYS5uZXQuY26CDSoucGlrYS5uZXQuY26CCyouOTlwaWthLmNmggk5OXBpa2Eu
Y2aCCyouOTlwaWthLmNuggk5OXBpa2EuY26CCjk5cGlrYS5jb22CDCouOTlwaWth
LmNvbYIS55qu5Y2h5LiY5qC56K+B5LmmghhQaWthY2h1IFJvb3QgQ2VydGlmaWNh
dGWCCVBpa2FjaHVpbYIb55qu5Y2h5LiY5pWw5a2X6K+B5Lmm57O757ufMB0GA1Ud
DgQWBBTuAGyx7J86BIEMkOBgAgyzizIlQDAfBgNVHSMEGDAWgBTuAGyx7J86BIEM
kOBgAgyzizIlQDAPBgNVHRMBAf8EBTADAQH/MAwGA1UdDwQFAwMH/4AwIgYJYIZI
AYb4QgENBBUWE1Bpa2FjaHUgUm9vdCBDQSBTTTIwEQYJYIZIAYb4QgEBBAQDAgTw
MDQGCWCGSAGG+EIBBAQnFiVodHRwczovL2NlcnQuNTJwaWthLmNuL0NSTC9DQS1T
TTIuY2VyMCUGCWCGSAGG+EIBAgQYFhZodHRwczovL2NlcnQuNTJwaWthLmNuMDQG
CWCGSAGG+EIBAwQnFiVodHRwczovL2NlcnQuNTJwaWthLmNuL0NSTC9DQS1TTTIu
Y2VyMDAGCWCGSAGG+EIBBwQjFiFodHRwczovL2NlcnQuNTJwaWthLmNuL0NBLVNN
Mi5jZXIwJQYJYIZIAYb4QgEIBBgWFmh0dHBzOi8vY2VydC41MnBpa2EuY24wHQYJ
YIZIAYb4QgEMBBAWDmNlcnQuNTJwaWthLmNuMIIBswYDVR0lAQH/BIIBpzCCAaMG
BFUdJQAGCCsGAQUFBwMBBggrBgEFBQcDAgYIKwYBBQUHAwMGCCsGAQUFBwMEBggr
BgEFBQcDBQYIKwYBBQUHAwYGCCsGAQUFBwMHBggrBgEFBQcDCAYIKwYBBQUHAwkG
CCsGAQUFBwMRBggrBgEFBQgCAgYKKwYBBAGCNwIBFQYKKwYBBAGCNwIBFgYKKwYB
BAGCNwoDAQYKKwYBBAGCNwoDBAYLKwYBBAGCNwoDBAEGCisGAQQBgjcUAgIGCWCG
SAGG+EIEAQYKKwYBBAGCNwoDCgYKKwYBBAGCNwoDCwYKKwYBBAGCNwoGAgYKKwYB
BAGCNwoDDQYKKwYBBAGCNwoDAgYKKwYBBAGCNwoDCQYKKwYBBAGCNwoFAQYKKwYB
BAGCNwoGAQYKKwYBBAGCNwoDDAYKKwYBBAGCNxQCAQYJKwYBBAGCNxUFBgorBgEE
AYI3CgMFBgkrBgEEAYI3FQYGCisGAQQBgjcKAwcGCSsGAQQBgjcVEwYKKwYBBAGC
NwoDCAYKKwYBBAGCNwoDBgYEVR0gAAYKKwYBBAGCNwoDAzAKBggqgRzPVQGDdQNI
ADBFAiB1THBH/PQzSrGSFgwF5qb7i3nWteijW1jmjolUW/dV+QIhAPARHtqBJk42
DMfdMN40lG8G8GXt+SGYiHMDIV4Rjqv9
-----END CERTIFICATE-----
